target datalayout = "e-m:e-p270:32:32-p271:32:32-p272:64:64-i64:64-i128:128-f80:128-n8:16:32:64-S128"
target triple = "x86_64-unknown-linux-gnu"

%struct.DeviceState = type { %struct.Object, ptr, ptr, i8, i8, i64, ptr, i32, i8, ptr, %struct.NamedGPIOListHead, %struct.NamedClockListHead, %struct.BusStateHead, i32, i32, i32, %struct.ResettableState, ptr, %struct.MemReentrancyGuard }
%struct.Object = type { ptr, ptr, ptr, i32, ptr }
%struct.NamedGPIOListHead = type { ptr }
%struct.NamedClockListHead = type { ptr }
%struct.BusStateHead = type { ptr }
%struct.ResettableState = type { i32, i8, i8 }
%struct.MemReentrancyGuard = type { i8 }

@error_fatal = external global ptr, align 8
@global_props.gp = internal global ptr null, align 8

; Function Attrs: nounwind sspstrong uwtable
define internal ptr @global_props() #0 {
entry:
  %0 = load ptr, ptr @global_props.gp, align 8
  %tobool = icmp ne ptr %0, null
  br i1 %tobool, label %if.end, label %if.then

if.then:                                          ; preds = %entry
  %call = call ptr @g_ptr_array_new()
  store ptr %call, ptr @global_props.gp, align 8
  br label %if.end

if.end:                                           ; preds = %if.then, %entry
  %1 = load ptr, ptr @global_props.gp, align 8
  ret ptr %1
}

; Function Attrs: nounwind sspstrong uwtable
define dso_local void @qdev_prop_set_globals(ptr noundef %dev) #0 {
entry:
  %dev.addr = alloca ptr, align 8
  store ptr %dev, ptr %dev.addr, align 8
  %0 = load ptr, ptr %dev.addr, align 8
  %call = call ptr @global_props()
  %1 = load ptr, ptr %dev.addr, align 8
  %hotplugged = getelementptr inbounds %struct.DeviceState, ptr %1, i32 0, i32 7
  %2 = load i32, ptr %hotplugged, align 8
  %tobool = icmp ne i32 %2, 0
  %cond = select i1 %tobool, ptr null, ptr @error_fatal
  %call1 = call zeroext i1 @object_apply_global_props(ptr noundef %0, ptr noundef %call, ptr noundef %cond)
  ret void
}