; Function Attrs: nounwind sspstrong uwtable
define dso_local void @qdev_prop_set_globals(ptr noundef %dev) local_unnamed_addr #0 {
entry:
  %0 = load ptr, ptr @global_props.gp, align 8
  %tobool.not.i = icmp eq ptr %0, null
  br i1 %tobool.not.i, label %if.then.i, label %global_props.exit

if.then.i:                                        ; preds = %entry
  %call.i = tail call ptr @g_ptr_array_new() #9
  store ptr %call.i, ptr @global_props.gp, align 8
  br label %global_props.exit

global_props.exit:                                ; preds = %entry, %if.then.i
  %1 = phi ptr [ %call.i, %if.then.i ], [ %0, %entry ]
  %hotplugged = getelementptr inbounds nuw i8, ptr %dev, i64 80
  %2 = load i32, ptr %hotplugged, align 8
  %tobool.not = icmp eq i32 %2, 0
  %cond = select i1 %tobool.not, ptr @error_fatal, ptr null
  %call1 = tail call zeroext i1 @object_apply_global_props(ptr noundef %dev, ptr noundef %1, ptr noundef %cond) #9
  ret void
}